target datalayout = "e-m:e-p270:32:32-p271:32:32-p272:64:64-i64:64-i128:128-f80:128-n8:16:32:64-S128"
target triple = "x86_64-pc-linux-gnu"

%"class.Luau::CstNode" = type { i32 }
%"struct.Luau::AstArray" = type { ptr, i64 }
%"class.Luau::CstTypeSingletonString" = type { %"class.Luau::CstNode", %"struct.Luau::AstArray", i32, i32 }

@_ZN4Luau7CstRttiINS_22CstTypeSingletonStringEE5valueE = linkonce_odr dso_local global i32 0, comdat, align 4

; Function Attrs: mustprogress nounwind uwtable
define linkonce_odr dso_local void @_ZN4Luau7CstNodeC2Ei(ptr noundef nonnull align 4 dereferenceable(4) %0, i32 noundef %1) unnamed_addr #3 comdat align 2 {
  %3 = alloca ptr, align 8
  %4 = alloca i32, align 4
  store ptr %0, ptr %3, align 8, !tbaa !18
  store i32 %1, ptr %4, align 4, !tbaa !4
  %5 = load ptr, ptr %3, align 8
  %6 = getelementptr inbounds nuw %"class.Luau::CstNode", ptr %5, i32 0, i32 0
  %7 = load i32, ptr %4, align 4, !tbaa !4
  store i32 %7, ptr %6, align 4, !tbaa !20
  ret void
}

; Function Attrs: mustprogress nounwind uwtable
define linkonce_odr dso_local noundef i32 @_ZN4Luau22CstTypeSingletonString13CstClassIndexEv() #3 comdat align 2 {
  %1 = load i32, ptr @_ZN4Luau7CstRttiINS_22CstTypeSingletonStringEE5valueE, align 4, !tbaa !4
  ret i32 %1
}

; Function Attrs: mustprogress uwtable
define dso_local void @_ZN4Luau22CstTypeSingletonStringC2ENS_8AstArrayIcEENS_21CstExprConstantString10QuoteStyleEj(ptr noundef nonnull align 8 dereferenceable(32) %0, ptr %1, i64 %2, i32 noundef %3, i32 noundef %4) unnamed_addr #2 align 2 {
  %6 = alloca %"struct.Luau::AstArray", align 8
  %7 = alloca ptr, align 8
  %8 = alloca i32, align 4
  %9 = alloca i32, align 4
  %10 = getelementptr inbounds nuw { ptr, i64 }, ptr %6, i32 0, i32 0
  store ptr %1, ptr %10, align 8
  %11 = getelementptr inbounds nuw { ptr, i64 }, ptr %6, i32 0, i32 1
  store i64 %2, ptr %11, align 8
  store ptr %0, ptr %7, align 8, !tbaa !97
  store i32 %3, ptr %8, align 4, !tbaa !24
  store i32 %4, ptr %9, align 4, !tbaa !4
  %12 = load ptr, ptr %7, align 8
  %13 = call noundef i32 @_ZN4Luau22CstTypeSingletonString13CstClassIndexEv()
  call void @_ZN4Luau7CstNodeC2Ei(ptr noundef nonnull align 4 dereferenceable(4) %12, i32 noundef %13)
  %14 = getelementptr inbounds nuw %"class.Luau::CstTypeSingletonString", ptr %12, i32 0, i32 1
  call void @llvm.memcpy.p0.p0.i64(ptr align 8 %14, ptr align 8 %6, i64 16, i1 false), !tbaa.struct !13
  %15 = getelementptr inbounds nuw %"class.Luau::CstTypeSingletonString", ptr %12, i32 0, i32 2
  %16 = load i32, ptr %8, align 4, !tbaa !24
  store i32 %16, ptr %15, align 8, !tbaa !99
  %17 = getelementptr inbounds nuw %"class.Luau::CstTypeSingletonString", ptr %12, i32 0, i32 3
  %18 = load i32, ptr %9, align 4, !tbaa !4
  store i32 %18, ptr %17, align 4, !tbaa !101
  ret void
}