; Function Attrs: mustprogress nofree norecurse nosync nounwind willreturn memory(read, argmem: write, inaccessiblemem: none) uwtable
define dso_local void @_ZN4Luau22CstTypeSingletonStringC2ENS_8AstArrayIcEENS_21CstExprConstantString10QuoteStyleEj(ptr noundef nonnull writeonly align 8 captures(none) dereferenceable(32) initializes((0, 4), (8, 32)) %0, ptr %1, i64 %2, i32 noundef %3, i32 noundef %4) unnamed_addr #4 align 2 {
  %6 = load i32, ptr @_ZN4Luau7CstRttiINS_22CstTypeSingletonStringEE5valueE, align 4, !tbaa !4
  store i32 %6, ptr %0, align 8, !tbaa !8
  %7 = getelementptr inbounds nuw i8, ptr %0, i64 8
  store ptr %1, ptr %7, align 8, !tbaa !11
  %.sroa.2.0..sroa_idx = getelementptr inbounds nuw i8, ptr %0, i64 16
  store i64 %2, ptr %.sroa.2.0..sroa_idx, align 8, !tbaa !14
  %8 = getelementptr inbounds nuw i8, ptr %0, i64 24
  store i32 %3, ptr %8, align 8, !tbaa !38
  %9 = getelementptr inbounds nuw i8, ptr %0, i64 28
  store i32 %4, ptr %9, align 4, !tbaa !40
  ret void
}